; Function Attrs: nofree norecurse nosync nounwind memory(argmem: readwrite) uwtable
define hidden void @cfl_subsample_hbd_420_16x4_c(ptr nocapture noundef readonly %0, i32 noundef %1, ptr nocapture noundef writeonly %2) #5 {
  %invariant.op.i = add i32 %1, 1
  %4 = shl i32 %1, 1
  %5 = sext i32 %4 to i64
  %6 = sext i32 %1 to i64
  br label %.preheader.us.i

.preheader.us.i:                                  ; preds = %._crit_edge.us.i, %3
  %.026.us.i = phi ptr [ %28, %._crit_edge.us.i ], [ %0, %3 ]
  %7 = phi i1 [ false, %._crit_edge.us.i ], [ true, %3 ]
  %.02224.us.i = phi ptr [ %29, %._crit_edge.us.i ], [ %2, %3 ]
  br label %8

8:                                                ; preds = %8, %.preheader.us.i
  %indvars.iv.i = phi i64 [ 0, %.preheader.us.i ], [ %indvars.iv.next.i, %8 ]
  %9 = add nsw i64 %indvars.iv.i, %6
  %10 = getelementptr inbounds i16, ptr %.026.us.i, i64 %indvars.iv.i
  %11 = load i16, ptr %10, align 2
  %12 = or disjoint i64 %indvars.iv.i, 1
  %13 = getelementptr inbounds i16, ptr %.026.us.i, i64 %12
  %14 = load i16, ptr %13, align 2
  %15 = add i16 %14, %11
  %16 = getelementptr inbounds i16, ptr %.026.us.i, i64 %9
  %17 = load i16, ptr %16, align 2
  %18 = add i16 %15, %17
  %19 = trunc nuw nsw i64 %indvars.iv.i to i32
  %.reass.us.i = add i32 %invariant.op.i, %19
  %20 = sext i32 %.reass.us.i to i64
  %21 = getelementptr inbounds i16, ptr %.026.us.i, i64 %20
  %22 = load i16, ptr %21, align 2
  %23 = add i16 %18, %22
  %24 = shl i16 %23, 1
  %25 = lshr exact i64 %indvars.iv.i, 1
  %26 = getelementptr inbounds i16, ptr %.02224.us.i, i64 %25
  store i16 %24, ptr %26, align 2
  %indvars.iv.next.i = add nuw nsw i64 %indvars.iv.i, 2
  %27 = icmp ult i64 %indvars.iv.i, 14
  br i1 %27, label %8, label %._crit_edge.us.i, !llvm.loop !25

._crit_edge.us.i:                                 ; preds = %8
  %28 = getelementptr inbounds i16, ptr %.026.us.i, i64 %5
  %29 = getelementptr inbounds i8, ptr %.02224.us.i, i64 64
  br i1 %7, label %.preheader.us.i, label %cfl_luma_subsampling_420_hbd_c.exit, !llvm.loop !26

cfl_luma_subsampling_420_hbd_c.exit:              ; preds = %._crit_edge.us.i
  ret void
}